target datalayout = "e-m:e-p270:32:32-p271:32:32-p272:64:64-i64:64-i128:128-f80:128-n8:16:32:64-S128"
target triple = "x86_64-pc-linux-gnu"

; Function Attrs: nounwind uwtable
define internal i32 @json_isdigit(i8 noundef zeroext %0) #0 {
  %2 = alloca i32, align 4
  %3 = alloca i8, align 1
  store i8 %0, ptr %3, align 1, !tbaa !33
  %4 = load i8, ptr %3, align 1, !tbaa !33
  %5 = zext i8 %4 to i32
  switch i32 %5, label %7 [
    i32 48, label %6
    i32 49, label %6
    i32 50, label %6
    i32 51, label %6
    i32 52, label %6
    i32 53, label %6
    i32 54, label %6
    i32 55, label %6
    i32 56, label %6
    i32 57, label %6
  ]

6:                                                ; preds = %1, %1, %1, %1, %1, %1, %1, %1, %1, %1
  store i32 1, ptr %2, align 4
  br label %8

7:                                                ; preds = %1
  store i32 0, ptr %2, align 4
  br label %8

8:                                                ; preds = %7, %6
  %9 = load i32, ptr %2, align 4
  ret i32 %9
}

; Function Attrs: nounwind uwtable
define internal i32 @json_isxdigit(i8 noundef zeroext %0) #0 {
  %2 = alloca i32, align 4
  %3 = alloca i8, align 1
  store i8 %0, ptr %3, align 1, !tbaa !33
  %4 = load i8, ptr %3, align 1, !tbaa !33
  %5 = call i32 @json_isdigit(i8 noundef zeroext %4)
  %6 = icmp ne i32 %5, 0
  br i1 %6, label %7, label %8

7:                                                ; preds = %1
  store i32 1, ptr %2, align 4
  br label %13

8:                                                ; preds = %1
  %9 = load i8, ptr %3, align 1, !tbaa !33
  %10 = zext i8 %9 to i32
  switch i32 %10, label %12 [
    i32 97, label %11
    i32 98, label %11
    i32 99, label %11
    i32 100, label %11
    i32 101, label %11
    i32 102, label %11
    i32 65, label %11
    i32 66, label %11
    i32 67, label %11
    i32 68, label %11
    i32 69, label %11
    i32 70, label %11
  ]

11:                                               ; preds = %8, %8, %8, %8, %8, %8, %8, %8, %8, %8, %8, %8
  store i32 1, ptr %2, align 4
  br label %13

12:                                               ; preds = %8
  store i32 0, ptr %2, align 4
  br label %13

13:                                               ; preds = %12, %11, %7
  %14 = load i32, ptr %2, align 4
  ret i32 %14
}

; Function Attrs: nounwind uwtable
define internal i32 @json_parse_string(ptr noundef %0, ptr noundef %1, i64 noundef %2) #0 {
  %4 = alloca i32, align 4
  %5 = alloca ptr, align 8
  %6 = alloca ptr, align 8
  %7 = alloca i64, align 8
  %8 = alloca ptr, align 8
  %9 = alloca i64, align 8
  %10 = alloca i32, align 4
  store ptr %0, ptr %5, align 8, !tbaa !28
  store ptr %1, ptr %6, align 8, !tbaa !17
  store i64 %2, ptr %7, align 8, !tbaa !32
  call void @llvm.lifetime.start.p0(i64 8, ptr %8) #4
  %11 = load ptr, ptr %5, align 8, !tbaa !28
  %12 = load ptr, ptr %11, align 8, !tbaa !17
  store ptr %12, ptr %8, align 8, !tbaa !17
  call void @llvm.lifetime.start.p0(i64 8, ptr %9) #4
  br label %13

13:                                               ; preds = %3
  br label %14

14:                                               ; preds = %13
  br label %15

15:                                               ; preds = %14
  br label %16

16:                                               ; preds = %70, %62, %37, %15
  %17 = load ptr, ptr %8, align 8, !tbaa !17
  %18 = load ptr, ptr %6, align 8, !tbaa !17
  %19 = icmp ult ptr %17, %18
  br i1 %19, label %20, label %71

20:                                               ; preds = %16
  %21 = load ptr, ptr %8, align 8, !tbaa !17
  %22 = getelementptr inbounds nuw i8, ptr %21, i32 1
  store ptr %22, ptr %8, align 8, !tbaa !17
  %23 = load i8, ptr %21, align 1, !tbaa !33
  %24 = zext i8 %23 to i32
  switch i32 %24, label %70 [
    i32 0, label %25
    i32 92, label %26
    i32 34, label %64
  ]

25:                                               ; preds = %20
  br label %72

26:                                               ; preds = %20
  %27 = load ptr, ptr %8, align 8, !tbaa !17
  %28 = load ptr, ptr %6, align 8, !tbaa !17
  %29 = icmp eq ptr %27, %28
  br i1 %29, label %30, label %31

30:                                               ; preds = %26
  br label %72

31:                                               ; preds = %26
  %32 = load ptr, ptr %8, align 8, !tbaa !17
  %33 = getelementptr inbounds nuw i8, ptr %32, i32 1
  store ptr %33, ptr %8, align 8, !tbaa !17
  %34 = load i8, ptr %32, align 1, !tbaa !33
  %35 = zext i8 %34 to i32
  switch i32 %35, label %63 [
    i32 0, label %36
    i32 34, label %37
    i32 92, label %37
    i32 47, label %37
    i32 98, label %37
    i32 102, label %37
    i32 110, label %37
    i32 114, label %37
    i32 116, label %37
    i32 117, label %38
  ]

36:                                               ; preds = %31
  br label %72

37:                                               ; preds = %31, %31, %31, %31, %31, %31, %31, %31
  br label %16

38:                                               ; preds = %31
  %39 = load ptr, ptr %6, align 8, !tbaa !17
  %40 = load ptr, ptr %8, align 8, !tbaa !17
  %41 = ptrtoint ptr %39 to i64
  %42 = ptrtoint ptr %40 to i64
  %43 = sub i64 %41, %42
  %44 = icmp slt i64 %43, 4
  br i1 %44, label %45, label %47

45:                                               ; preds = %38
  %46 = load ptr, ptr %6, align 8, !tbaa !17
  store ptr %46, ptr %8, align 8, !tbaa !17
  br label %72

47:                                               ; preds = %38
  store i64 0, ptr %9, align 8, !tbaa !32
  br label %48

48:                                               ; preds = %59, %47
  %49 = load i64, ptr %9, align 8, !tbaa !32
  %50 = icmp ult i64 %49, 4
  br i1 %50, label %51, label %62

51:                                               ; preds = %48
  %52 = load ptr, ptr %8, align 8, !tbaa !17
  %53 = getelementptr inbounds nuw i8, ptr %52, i32 1
  store ptr %53, ptr %8, align 8, !tbaa !17
  %54 = load i8, ptr %52, align 1, !tbaa !33
  %55 = call i32 @json_isxdigit(i8 noundef zeroext %54)
  %56 = icmp ne i32 %55, 0
  br i1 %56, label %58, label %57

57:                                               ; preds = %51
  br label %72

58:                                               ; preds = %51
  br label %59

59:                                               ; preds = %58
  %60 = load i64, ptr %9, align 8, !tbaa !32
  %61 = add i64 %60, 1
  store i64 %61, ptr %9, align 8, !tbaa !32
  br label %48

62:                                               ; preds = %48
  br label %16

63:                                               ; preds = %31
  br label %72

64:                                               ; preds = %20
  br label %65

65:                                               ; preds = %64
  br label %66

66:                                               ; preds = %65
  br label %67

67:                                               ; preds = %66
  %68 = load ptr, ptr %8, align 8, !tbaa !17
  %69 = load ptr, ptr %5, align 8, !tbaa !28
  store ptr %68, ptr %69, align 8, !tbaa !17
  store i32 1, ptr %4, align 4
  store i32 1, ptr %10, align 4
  br label %78

70:                                               ; preds = %20
  br label %16

71:                                               ; preds = %16
  br label %72

72:                                               ; preds = %71, %63, %57, %45, %36, %30, %25
  br label %73

73:                                               ; preds = %72
  br label %74

74:                                               ; preds = %73
  br label %75

75:                                               ; preds = %74
  %76 = load ptr, ptr %8, align 8, !tbaa !17
  %77 = load ptr, ptr %5, align 8, !tbaa !28
  store ptr %76, ptr %77, align 8, !tbaa !17
  store i32 0, ptr %4, align 4
  store i32 1, ptr %10, align 4
  br label %78

78:                                               ; preds = %75, %67
  call void @llvm.lifetime.end.p0(i64 8, ptr %9) #4
  call void @llvm.lifetime.end.p0(i64 8, ptr %8) #4
  %79 = load i32, ptr %4, align 4
  ret i32 %79
}