; Function Attrs: nofree norecurse nosync nounwind memory(read, argmem: readwrite, inaccessiblemem: none) uwtable
define internal fastcc range(i32 0, 2) i32 @json_parse_string(ptr noundef nonnull captures(none) %0, ptr noundef %1) unnamed_addr #5 {
  %3 = load ptr, ptr %0, align 8, !tbaa !13
  %4 = icmp ult ptr %3, %1
  br i1 %4, label %.lr.ph, label %json_isxdigit.exit

.lr.ph:                                           ; preds = %2
  %5 = ptrtoint ptr %1 to i64
  br label %6

6:                                                ; preds = %.lr.ph, %.backedge
  %.01730 = phi ptr [ %3, %.lr.ph ], [ %.017.be, %.backedge ]
  %7 = getelementptr inbounds nuw i8, ptr %.01730, i64 1
  %8 = load i8, ptr %.01730, align 1, !tbaa !23
  switch i8 %8, label %.backedge [
    i8 0, label %json_isxdigit.exit
    i8 92, label %9
    i8 34, label %json_isxdigit.exit.loopexit6
  ]

9:                                                ; preds = %6
  %10 = icmp eq ptr %7, %1
  br i1 %10, label %json_isxdigit.exit, label %11

11:                                               ; preds = %9
  %12 = getelementptr inbounds nuw i8, ptr %.01730, i64 2
  %13 = load i8, ptr %7, align 1, !tbaa !23
  switch i8 %13, label %json_isxdigit.exit [
    i8 117, label %15
    i8 34, label %.backedge
    i8 92, label %.backedge
    i8 47, label %.backedge
    i8 98, label %.backedge
    i8 102, label %.backedge
    i8 110, label %.backedge
    i8 114, label %.backedge
    i8 116, label %.backedge
  ]

.backedge:                                        ; preds = %23, %11, %11, %11, %11, %11, %11, %11, %11, %6
  %.017.be = phi ptr [ %7, %6 ], [ %12, %11 ], [ %12, %11 ], [ %12, %11 ], [ %12, %11 ], [ %12, %11 ], [ %12, %11 ], [ %12, %11 ], [ %12, %11 ], [ %scevgep, %23 ]
  %14 = icmp ult ptr %.017.be, %1
  br i1 %14, label %6, label %json_isxdigit.exit

15:                                               ; preds = %11
  %16 = ptrtoint ptr %12 to i64
  %17 = sub i64 %5, %16
  %18 = icmp slt i64 %17, 4
  br i1 %18, label %json_isxdigit.exit, label %.preheader.preheader

.preheader.preheader:                             ; preds = %15
  %scevgep = getelementptr i8, ptr %.01730, i64 6
  br label %.preheader

.preheader:                                       ; preds = %.preheader.preheader, %23
  %.029 = phi i64 [ %24, %23 ], [ 0, %.preheader.preheader ]
  %.128 = phi ptr [ %19, %23 ], [ %12, %.preheader.preheader ]
  %19 = getelementptr inbounds nuw i8, ptr %.128, i64 1
  %20 = load i8, ptr %.128, align 1, !tbaa !23
  %21 = add i8 %20, -58
  %switch.i.i = icmp ult i8 %21, -10
  br i1 %switch.i.i, label %22, label %23

22:                                               ; preds = %.preheader
  switch i8 %20, label %json_isxdigit.exit [
    i8 97, label %23
    i8 98, label %23
    i8 99, label %23
    i8 100, label %23
    i8 101, label %23
    i8 102, label %23
    i8 65, label %23
    i8 66, label %23
    i8 67, label %23
    i8 68, label %23
    i8 69, label %23
    i8 70, label %23
  ]

23:                                               ; preds = %.preheader, %22, %22, %22, %22, %22, %22, %22, %22, %22, %22, %22, %22
  %24 = add nuw nsw i64 %.029, 1
  %exitcond.not = icmp eq i64 %24, 4
  br i1 %exitcond.not, label %.backedge, label %.preheader

json_isxdigit.exit.loopexit6:                     ; preds = %6
  br label %json_isxdigit.exit

json_isxdigit.exit:                               ; preds = %15, %9, %11, %.backedge, %22, %6, %json_isxdigit.exit.loopexit6, %2
  %storemerge = phi ptr [ %3, %2 ], [ %7, %6 ], [ %19, %22 ], [ %1, %15 ], [ %7, %9 ], [ %12, %11 ], [ %.017.be, %.backedge ], [ %7, %json_isxdigit.exit.loopexit6 ]
  %.018 = phi i32 [ 0, %2 ], [ 0, %6 ], [ 0, %22 ], [ 0, %15 ], [ 0, %9 ], [ 0, %11 ], [ 0, %.backedge ], [ 1, %json_isxdigit.exit.loopexit6 ]
  store ptr %storemerge, ptr %0, align 8, !tbaa !13
  ret i32 %.018
}